target datalayout = "e-m:e-p270:32:32-p271:32:32-p272:64:64-i64:64-i128:128-f80:128-n8:16:32:64-S128"
target triple = "x86_64-pc-linux-gnu"

; Function Attrs: mustprogress nounwind uwtable
define linkonce_odr void @_ZSt4swapIdENSt9enable_ifIXsr6__and_ISt6__not_ISt15__is_tuple_likeIT_EESt21is_move_constructibleIS3_ESt18is_move_assignableIS3_EEE5valueEvE4typeERS3_SC_(ptr noundef nonnull align 8 dereferenceable(8) %0, ptr noundef nonnull align 8 dereferenceable(8) %1) #2 comdat {
  %3 = alloca ptr, align 8
  %4 = alloca ptr, align 8
  %5 = alloca double, align 8
  store ptr %0, ptr %3, align 8
  store ptr %1, ptr %4, align 8
  %6 = load ptr, ptr %3, align 8
  %7 = load double, ptr %6, align 8
  store double %7, ptr %5, align 8
  %8 = load ptr, ptr %4, align 8
  %9 = load double, ptr %8, align 8
  %10 = load ptr, ptr %3, align 8
  store double %9, ptr %10, align 8
  %11 = load double, ptr %5, align 8
  %12 = load ptr, ptr %4, align 8
  store double %11, ptr %12, align 8
  ret void
}

; Function Attrs: mustprogress nounwind uwtable
define linkonce_odr noundef double @_ZN32pxrInternal_v0_24__pxrReserved__6GfSqrtEd(double noundef %0) #2 comdat {
  %2 = alloca double, align 8
  store double %0, ptr %2, align 8
  %3 = load double, ptr %2, align 8
  %4 = call double @sqrt(double noundef %3) #6
  ret double %4
}

; Function Attrs: mustprogress nounwind uwtable
define linkonce_odr noundef double @_ZN32pxrInternal_v0_24__pxrReserved__5GfSqrIdEEdRKT_(ptr noundef nonnull align 8 dereferenceable(8) %0) #2 comdat {
  %2 = alloca ptr, align 8
  store ptr %0, ptr %2, align 8
  %3 = load ptr, ptr %2, align 8
  %4 = load double, ptr %3, align 8
  %5 = load ptr, ptr %2, align 8
  %6 = load double, ptr %5, align 8
  %7 = fmul double %4, %6
  ret double %7
}

; Function Attrs: mustprogress nounwind uwtable
define linkonce_odr noundef zeroext i1 @_ZN32pxrInternal_v0_24__pxrReserved__9GfIsCloseEddd(double noundef %0, double noundef %1, double noundef %2) #2 comdat {
  %4 = alloca double, align 8
  %5 = alloca double, align 8
  %6 = alloca double, align 8
  store double %0, ptr %4, align 8
  store double %1, ptr %5, align 8
  store double %2, ptr %6, align 8
  %7 = load double, ptr %4, align 8
  %8 = load double, ptr %5, align 8
  %9 = fsub double %7, %8
  %10 = call double @llvm.fabs.f64(double %9)
  %11 = load double, ptr %6, align 8
  %12 = fcmp olt double %10, %11
  ret i1 %12
}

; Function Attrs: mustprogress uwtable
define noundef zeroext i1 @_ZNK32pxrInternal_v0_24__pxrReserved__5GfRay15_SolveQuadraticEdddPdS1_(ptr noundef nonnull align 8 dereferenceable(48) %0, double noundef %1, double noundef %2, double noundef %3, ptr noundef %4, ptr noundef %5) #0 align 2 {
  %7 = alloca i1, align 1
  %8 = alloca ptr, align 8
  %9 = alloca double, align 8
  %10 = alloca double, align 8
  %11 = alloca double, align 8
  %12 = alloca ptr, align 8
  %13 = alloca ptr, align 8
  %14 = alloca double, align 8
  %15 = alloca double, align 8
  %16 = alloca double, align 8
  %17 = alloca double, align 8
  %18 = alloca double, align 8
  %19 = alloca double, align 8
  store ptr %0, ptr %8, align 8
  store double %1, ptr %9, align 8
  store double %2, ptr %10, align 8
  store double %3, ptr %11, align 8
  store ptr %4, ptr %12, align 8
  store ptr %5, ptr %13, align 8
  %20 = load double, ptr %9, align 8
  %21 = call noundef zeroext i1 @_ZN32pxrInternal_v0_24__pxrReserved__9GfIsCloseEddd(double noundef %20, double noundef 0.000000e+00, double noundef 0x3EB0C6F7A0B5ED8D)
  br i1 %21, label %22, label %47

22:                                               ; preds = %6
  %23 = load double, ptr %10, align 8
  %24 = call noundef zeroext i1 @_ZN32pxrInternal_v0_24__pxrReserved__9GfIsCloseEddd(double noundef %23, double noundef 0.000000e+00, double noundef 0x3EB0C6F7A0B5ED8D)
  br i1 %24, label %25, label %26

25:                                               ; preds = %22
  store i1 false, ptr %7, align 1
  br label %117

26:                                               ; preds = %22
  %27 = load double, ptr %11, align 8
  %28 = fneg double %27
  %29 = load double, ptr %10, align 8
  %30 = fdiv double %28, %29
  store double %30, ptr %14, align 8
  %31 = load double, ptr %14, align 8
  %32 = fcmp olt double %31, 0.000000e+00
  br i1 %32, label %33, label %34

33:                                               ; preds = %26
  store i1 false, ptr %7, align 1
  br label %117

34:                                               ; preds = %26
  %35 = load ptr, ptr %12, align 8
  %36 = icmp ne ptr %35, null
  br i1 %36, label %37, label %40

37:                                               ; preds = %34
  %38 = load double, ptr %14, align 8
  %39 = load ptr, ptr %12, align 8
  store double %38, ptr %39, align 8
  br label %40

40:                                               ; preds = %37, %34
  %41 = load ptr, ptr %13, align 8
  %42 = icmp ne ptr %41, null
  br i1 %42, label %43, label %46

43:                                               ; preds = %40
  %44 = load double, ptr %14, align 8
  %45 = load ptr, ptr %13, align 8
  store double %44, ptr %45, align 8
  br label %46

46:                                               ; preds = %43, %40
  store i1 true, ptr %7, align 1
  br label %117

47:                                               ; preds = %6
  %48 = call noundef double @_ZN32pxrInternal_v0_24__pxrReserved__5GfSqrIdEEdRKT_(ptr noundef nonnull align 8 dereferenceable(8) %10)
  %49 = load double, ptr %9, align 8
  %50 = fmul double 4.000000e+00, %49
  %51 = load double, ptr %11, align 8
  %52 = fneg double %50
  %53 = call double @llvm.fmuladd.f64(double %52, double %51, double %48)
  store double %53, ptr %15, align 8
  %54 = load double, ptr %15, align 8
  %55 = call noundef zeroext i1 @_ZN32pxrInternal_v0_24__pxrReserved__9GfIsCloseEddd(double noundef %54, double noundef 0.000000e+00, double noundef 0x3EB0C6F7A0B5ED8D)
  br i1 %55, label %56, label %78

56:                                               ; preds = %47
  %57 = load double, ptr %10, align 8
  %58 = fneg double %57
  %59 = load double, ptr %9, align 8
  %60 = fmul double 2.000000e+00, %59
  %61 = fdiv double %58, %60
  store double %61, ptr %16, align 8
  %62 = load double, ptr %16, align 8
  %63 = fcmp olt double %62, 0.000000e+00
  br i1 %63, label %64, label %65

64:                                               ; preds = %56
  store i1 false, ptr %7, align 1
  br label %117

65:                                               ; preds = %56
  %66 = load ptr, ptr %12, align 8
  %67 = icmp ne ptr %66, null
  br i1 %67, label %68, label %71

68:                                               ; preds = %65
  %69 = load double, ptr %16, align 8
  %70 = load ptr, ptr %12, align 8
  store double %69, ptr %70, align 8
  br label %71

71:                                               ; preds = %68, %65
  %72 = load ptr, ptr %13, align 8
  %73 = icmp ne ptr %72, null
  br i1 %73, label %74, label %77

74:                                               ; preds = %71
  %75 = load double, ptr %16, align 8
  %76 = load ptr, ptr %13, align 8
  store double %75, ptr %76, align 8
  br label %77

77:                                               ; preds = %74, %71
  store i1 true, ptr %7, align 1
  br label %117

78:                                               ; preds = %47
  %79 = load double, ptr %15, align 8
  %80 = fcmp olt double %79, 0.000000e+00
  br i1 %80, label %81, label %82

81:                                               ; preds = %78
  store i1 false, ptr %7, align 1
  br label %117

82:                                               ; preds = %78
  %83 = load double, ptr %10, align 8
  %84 = load double, ptr %10, align 8
  %85 = call double @llvm.copysign.f64(double 1.000000e+00, double %84)
  %86 = load double, ptr %15, align 8
  %87 = call noundef double @_ZN32pxrInternal_v0_24__pxrReserved__6GfSqrtEd(double noundef %86)
  %88 = call double @llvm.fmuladd.f64(double %85, double %87, double %83)
  %89 = fmul double -5.000000e-01, %88
  store double %89, ptr %17, align 8
  %90 = load double, ptr %17, align 8
  %91 = load double, ptr %9, align 8
  %92 = fdiv double %90, %91
  store double %92, ptr %18, align 8
  %93 = load double, ptr %11, align 8
  %94 = load double, ptr %17, align 8
  %95 = fdiv double %93, %94
  store double %95, ptr %19, align 8
  %96 = load double, ptr %18, align 8
  %97 = load double, ptr %19, align 8
  %98 = fcmp ogt double %96, %97
  br i1 %98, label %99, label %100

99:                                               ; preds = %82
  call void @_ZSt4swapIdENSt9enable_ifIXsr6__and_ISt6__not_ISt15__is_tuple_likeIT_EESt21is_move_constructibleIS3_ESt18is_move_assignableIS3_EEE5valueEvE4typeERS3_SC_(ptr noundef nonnull align 8 dereferenceable(8) %18, ptr noundef nonnull align 8 dereferenceable(8) %19) #6
  br label %100

100:                                              ; preds = %99, %82
  %101 = load double, ptr %19, align 8
  %102 = fcmp oge double %101, 0.000000e+00
  br i1 %102, label %103, label %116

103:                                              ; preds = %100
  %104 = load ptr, ptr %12, align 8
  %105 = icmp ne ptr %104, null
  br i1 %105, label %106, label %109

106:                                              ; preds = %103
  %107 = load double, ptr %18, align 8
  %108 = load ptr, ptr %12, align 8
  store double %107, ptr %108, align 8
  br label %109

109:                                              ; preds = %106, %103
  %110 = load ptr, ptr %13, align 8
  %111 = icmp ne ptr %110, null
  br i1 %111, label %112, label %115

112:                                              ; preds = %109
  %113 = load double, ptr %19, align 8
  %114 = load ptr, ptr %13, align 8
  store double %113, ptr %114, align 8
  br label %115

115:                                              ; preds = %112, %109
  store i1 true, ptr %7, align 1
  br label %117

116:                                              ; preds = %100
  store i1 false, ptr %7, align 1
  br label %117

117:                                              ; preds = %116, %115, %81, %77, %64, %46, %33, %25
  %118 = load i1, ptr %7, align 1
  ret i1 %118
}