; Function Attrs: mustprogress nofree nounwind willreturn memory(write) uwtable
define noundef zeroext i1 @_ZNK32pxrInternal_v0_24__pxrReserved__5GfRay15_SolveQuadraticEdddPdS1_(ptr nocapture noundef nonnull readnone align 8 dereferenceable(48) %0, double noundef %1, double noundef %2, double noundef %3, ptr noundef writeonly %4, ptr noundef writeonly %5) local_unnamed_addr #7 align 2 {
  %7 = tail call double @llvm.fabs.f64(double %1)
  %8 = fcmp olt double %7, 0x3EB0C6F7A0B5ED8D
  br i1 %8, label %9, label %19

9:                                                ; preds = %6
  %10 = tail call double @llvm.fabs.f64(double %2)
  %11 = fcmp olt double %10, 0x3EB0C6F7A0B5ED8D
  br i1 %11, label %47, label %12

12:                                               ; preds = %9
  %13 = fneg double %3
  %14 = fdiv double %13, %2
  %15 = fcmp olt double %14, 0.000000e+00
  br i1 %15, label %47, label %16

16:                                               ; preds = %12
  %.not41 = icmp eq ptr %4, null
  br i1 %.not41, label %18, label %17

17:                                               ; preds = %16
  store double %14, ptr %4, align 8
  br label %18

18:                                               ; preds = %17, %16
  %.not42 = icmp eq ptr %5, null
  br i1 %.not42, label %47, label %.sink.split

19:                                               ; preds = %6
  %20 = fmul double %2, %2
  %21 = fmul double %1, -4.000000e+00
  %22 = tail call double @llvm.fmuladd.f64(double %21, double %3, double %20)
  %23 = tail call double @llvm.fabs.f64(double %22)
  %24 = fcmp olt double %23, 0x3EB0C6F7A0B5ED8D
  br i1 %24, label %25, label %33

25:                                               ; preds = %19
  %26 = fneg double %2
  %27 = fmul double %1, 2.000000e+00
  %28 = fdiv double %26, %27
  %29 = fcmp olt double %28, 0.000000e+00
  br i1 %29, label %47, label %30

30:                                               ; preds = %25
  %.not39 = icmp eq ptr %4, null
  br i1 %.not39, label %32, label %31

31:                                               ; preds = %30
  store double %28, ptr %4, align 8
  br label %32

32:                                               ; preds = %31, %30
  %.not40 = icmp eq ptr %5, null
  br i1 %.not40, label %47, label %.sink.split

33:                                               ; preds = %19
  %34 = fcmp olt double %22, 0.000000e+00
  br i1 %34, label %47, label %35

35:                                               ; preds = %33
  %36 = tail call double @llvm.copysign.f64(double 1.000000e+00, double %2)
  %37 = tail call noundef double @sqrt(double noundef %22) #17
  %38 = tail call double @llvm.fmuladd.f64(double %36, double %37, double %2)
  %39 = fmul double %38, -5.000000e-01
  %40 = fdiv double %39, %1
  %41 = fdiv double %3, %39
  %42 = fcmp ogt double %40, %41
  %.053 = select i1 %42, double %41, double %40
  %.052 = select i1 %42, double %40, double %41
  %43 = fcmp ult double %.052, 0.000000e+00
  br i1 %43, label %47, label %44

44:                                               ; preds = %35
  %.not = icmp eq ptr %4, null
  br i1 %.not, label %46, label %45

45:                                               ; preds = %44
  store double %.053, ptr %4, align 8
  br label %46

46:                                               ; preds = %45, %44
  %.not38 = icmp eq ptr %5, null
  br i1 %.not38, label %47, label %.sink.split

.sink.split:                                      ; preds = %46, %32, %18
  %.052.sink = phi double [ %14, %18 ], [ %28, %32 ], [ %.052, %46 ]
  store double %.052.sink, ptr %5, align 8
  br label %47

47:                                               ; preds = %.sink.split, %35, %46, %33, %32, %25, %18, %12, %9
  %.0 = phi i1 [ false, %9 ], [ false, %12 ], [ true, %18 ], [ false, %25 ], [ true, %32 ], [ false, %33 ], [ true, %46 ], [ false, %35 ], [ true, %.sink.split ]
  ret i1 %.0
}